; ModuleID = '60/868.c'
source_filename = "60/868.c"
target datalayout = "e-m:e-p270:32:32-p271:32:32-p272:64:64-i64:64-f80:128-n8:16:32:64-S128"
target triple = "x86_64-pc-linux-gnu"

@.str = private unnamed_addr constant [3 x i8] c"%d\00", align 1
@.str.1 = private unnamed_addr constant [6 x i8] c"empty\00", align 1
@.str.2 = private unnamed_addr constant [6 x i8] c"%d %d\00", align 1
@.str.3 = private unnamed_addr constant [7 x i8] c"\0A%d %d\00", align 1

; Function Attrs: noinline nounwind uwtable
define dso_local i32 @main() #0 {
  %1 = alloca i32, align 4
  %2 = alloca i32, align 4
  %3 = alloca i32, align 4
  %4 = alloca i32, align 4
  %5 = alloca i32, align 4
  %6 = alloca i32, align 4
  %7 = alloca i32, align 4
  %8 = alloca i32, align 4
  %9 = alloca [10000 x i32], align 16
  store i32 0, i32* %1, align 4
  store i32 0, i32* %5, align 4
  store i32 0, i32* %6, align 4
  store i32 0, i32* %7, align 4
  store i32 1, i32* %8, align 4
  %10 = call i32 (i8*, ...) @__isoc99_scanf(i8* getelementptr inbounds ([3 x i8], [3 x i8]* @.str, i64 0, i64 0), i32* %2)
  store i32 2, i32* %3, align 4
  br label %11

11:                                               ; preds = %51, %0
  %12 = load i32, i32* %3, align 4
  %13 = load i32, i32* %2, align 4
  %14 = icmp sle i32 %12, %13
  br i1 %14, label %15, label %54

15:                                               ; preds = %11
  store i32 2, i32* %4, align 4
  br label %16

16:                                               ; preds = %29, %15
  %17 = load i32, i32* %4, align 4
  %18 = load i32, i32* %3, align 4
  %19 = icmp slt i32 %17, %18
  br i1 %19, label %20, label %32

20:                                               ; preds = %16
  %21 = load i32, i32* %3, align 4
  %22 = load i32, i32* %4, align 4
  %23 = srem i32 %21, %22
  %24 = icmp ne i32 %23, 0
  br i1 %24, label %25, label %26

25:                                               ; preds = %20
  br label %29

26:                                               ; preds = %20
  %27 = load i32, i32* %5, align 4
  %28 = add nsw i32 %27, 1
  store i32 %28, i32* %5, align 4
  br label %32

29:                                               ; preds = %25
  %30 = load i32, i32* %4, align 4
  %31 = add nsw i32 %30, 1
  store i32 %31, i32* %4, align 4
  br label %16

32:                                               ; preds = %26, %16
  %33 = load i32, i32* %4, align 4
  %34 = load i32, i32* %3, align 4
  %35 = icmp eq i32 %33, %34
  br i1 %35, label %36, label %43

36:                                               ; preds = %32
  %37 = load i32, i32* %3, align 4
  %38 = load i32, i32* %3, align 4
  %39 = sext i32 %38 to i64
  %40 = getelementptr inbounds [10000 x i32], [10000 x i32]* %9, i64 0, i64 %39
  store i32 %37, i32* %40, align 4
  %41 = load i32, i32* %6, align 4
  %42 = add nsw i32 %41, 1
  store i32 %42, i32* %6, align 4
  br label %43

43:                                               ; preds = %36, %32
  %44 = load i32, i32* %5, align 4
  %45 = load i32, i32* %2, align 4
  %46 = sub nsw i32 %45, 1
  %47 = icmp eq i32 %44, %46
  br i1 %47, label %48, label %50

48:                                               ; preds = %43
  %49 = call i32 (i8*, ...) @printf(i8* getelementptr inbounds ([6 x i8], [6 x i8]* @.str.1, i64 0, i64 0))
  br label %50

50:                                               ; preds = %48, %43
  br label %51

51:                                               ; preds = %50
  %52 = load i32, i32* %3, align 4
  %53 = add nsw i32 %52, 1
  store i32 %53, i32* %3, align 4
  br label %11

54:                                               ; preds = %11
  %55 = load i32, i32* %6, align 4
  store i32 %55, i32* %7, align 4
  store i32 2, i32* %3, align 4
  br label %56

56:                                               ; preds = %108, %54
  %57 = load i32, i32* %3, align 4
  %58 = load i32, i32* %2, align 4
  %59 = icmp sle i32 %57, %58
  br i1 %59, label %60, label %111

60:                                               ; preds = %56
  %61 = load i32, i32* %3, align 4
  %62 = add nsw i32 %61, 2
  %63 = sext i32 %62 to i64
  %64 = getelementptr inbounds [10000 x i32], [10000 x i32]* %9, i64 0, i64 %63
  %65 = load i32, i32* %64, align 4
  %66 = load i32, i32* %3, align 4
  %67 = sext i32 %66 to i64
  %68 = getelementptr inbounds [10000 x i32], [10000 x i32]* %9, i64 0, i64 %67
  %69 = load i32, i32* %68, align 4
  %70 = sub nsw i32 %65, %69
  %71 = icmp eq i32 %70, 2
  br i1 %71, label %72, label %107

72:                                               ; preds = %60
  %73 = load i32, i32* %8, align 4
  %74 = icmp eq i32 %73, 1
  br i1 %74, label %75, label %90

75:                                               ; preds = %72
  %76 = load i32, i32* %3, align 4
  %77 = sext i32 %76 to i64
  %78 = getelementptr inbounds [10000 x i32], [10000 x i32]* %9, i64 0, i64 %77
  %79 = load i32, i32* %78, align 4
  %80 = load i32, i32* %3, align 4
  %81 = add nsw i32 %80, 2
  %82 = sext i32 %81 to i64
  %83 = getelementptr inbounds [10000 x i32], [10000 x i32]* %9, i64 0, i64 %82
  %84 = load i32, i32* %83, align 4
  %85 = call i32 (i8*, ...) @printf(i8* getelementptr inbounds ([6 x i8], [6 x i8]* @.str.2, i64 0, i64 0), i32 %79, i32 %84)
  %86 = load i32, i32* %6, align 4
  %87 = add nsw i32 %86, -1
  store i32 %87, i32* %6, align 4
  %88 = load i32, i32* %8, align 4
  %89 = add nsw i32 %88, 1
  store i32 %89, i32* %8, align 4
  br label %108

90:                                               ; preds = %72
  %91 = load i32, i32* %8, align 4
  %92 = icmp ne i32 %91, 1
  br i1 %92, label %93, label %106

93:                                               ; preds = %90
  %94 = load i32, i32* %3, align 4
  %95 = sext i32 %94 to i64
  %96 = getelementptr inbounds [10000 x i32], [10000 x i32]* %9, i64 0, i64 %95
  %97 = load i32, i32* %96, align 4
  %98 = load i32, i32* %3, align 4
  %99 = add nsw i32 %98, 2
  %100 = sext i32 %99 to i64
  %101 = getelementptr inbounds [10000 x i32], [10000 x i32]* %9, i64 0, i64 %100
  %102 = load i32, i32* %101, align 4
  %103 = call i32 (i8*, ...) @printf(i8* getelementptr inbounds ([7 x i8], [7 x i8]* @.str.3, i64 0, i64 0), i32 %97, i32 %102)
  %104 = load i32, i32* %6, align 4
  %105 = add nsw i32 %104, -1
  store i32 %105, i32* %6, align 4
  br label %106

106:                                              ; preds = %93, %90
  br label %107

107:                                              ; preds = %106, %60
  br label %108

108:                                              ; preds = %107, %75
  %109 = load i32, i32* %3, align 4
  %110 = add nsw i32 %109, 1
  store i32 %110, i32* %3, align 4
  br label %56

111:                                              ; preds = %56
  %112 = load i32, i32* %6, align 4
  %113 = load i32, i32* %7, align 4
  %114 = icmp eq i32 %112, %113
  br i1 %114, label %115, label %117

115:                                              ; preds = %111
  %116 = call i32 (i8*, ...) @printf(i8* getelementptr inbounds ([6 x i8], [6 x i8]* @.str.1, i64 0, i64 0))
  br label %117

117:                                              ; preds = %115, %111
  ret i32 0
}

declare dso_local i32 @__isoc99_scanf(i8*, ...) #1

declare dso_local i32 @printf(i8*, ...) #1


!llvm.module.flags = !{!0}
!llvm.ident = !{!1}

!0 = !{i32 1, !"wchar_size", i32 4}
!1 = !{!"clang version 10.0.0-4ubuntu1 "}
